; Function Attrs: mustprogress nounwind uwtable
define hidden void @_ZNK5clang6driver10toolchains9BareMetal19AddCXXStdlibLibArgsERKN4llvm3opt7ArgListERNS3_11SmallVectorIPKcLj16EEE(ptr noundef nonnull align 8 dereferenceable(2168) %0, ptr noundef nonnull align 8 dereferenceable(176) %1, ptr noundef nonnull align 8 dereferenceable(144) %2) unnamed_addr #0 align 2 {
  %4 = load ptr, ptr %0, align 8
  %5 = getelementptr inbounds nuw i8, ptr %4, i64 584
  %6 = load ptr, ptr %5, align 8
  %7 = tail call noundef i32 %6(ptr noundef nonnull align 8 dereferenceable(2168) %0, ptr noundef nonnull align 8 dereferenceable(176) %1) #15
  switch i32 %7, label %55 [
    i32 0, label %8
    i32 1, label %35
  ]

8:                                                ; preds = %3
  %9 = tail call noundef i64 @_ZNK4llvm15SmallVectorBaseIjE4sizeEv(ptr noundef nonnull align 8 dereferenceable(16) %2) #15
  %10 = add i64 %9, 1
  %11 = tail call noundef i64 @_ZNK4llvm15SmallVectorBaseIjE8capacityEv(ptr noundef nonnull align 8 dereferenceable(16) %2) #15
  %.not.i.i.i = icmp ugt i64 %10, %11
  br i1 %.not.i.i.i, label %12, label %_ZN4llvm23SmallVectorTemplateBaseIPKcLb1EE9push_backES2_.exit

12:                                               ; preds = %8
  %13 = getelementptr inbounds nuw i8, ptr %2, i64 16
  tail call void @_ZN4llvm15SmallVectorBaseIjE8grow_podEPvmm(ptr noundef nonnull align 8 dereferenceable(16) %2, ptr noundef nonnull %13, i64 noundef %10, i64 noundef 8) #15
  br label %_ZN4llvm23SmallVectorTemplateBaseIPKcLb1EE9push_backES2_.exit

_ZN4llvm23SmallVectorTemplateBaseIPKcLb1EE9push_backES2_.exit: ; preds = %8, %12
  %14 = load ptr, ptr %2, align 8
  %15 = tail call noundef i64 @_ZNK4llvm15SmallVectorBaseIjE4sizeEv(ptr noundef nonnull align 8 dereferenceable(16) %2) #15
  %16 = getelementptr inbounds ptr, ptr %14, i64 %15
  store i64 ptrtoint (ptr @.str.8 to i64), ptr %16, align 1
  %17 = tail call noundef i64 @_ZNK4llvm15SmallVectorBaseIjE4sizeEv(ptr noundef nonnull align 8 dereferenceable(16) %2) #15
  %18 = add i64 %17, 1
  tail call void @_ZN4llvm15SmallVectorBaseIjE8set_sizeEm(ptr noundef nonnull align 8 dereferenceable(16) %2, i64 noundef %18) #15
  %19 = tail call noundef ptr @_ZNK4llvm3opt7ArgList10getLastArgIJN5clang6driver7options2IDEEEEPNS0_3ArgEDpT_(ptr noundef nonnull align 8 dereferenceable(176) %1, i32 noundef 658)
  %.not = icmp eq ptr %19, null
  br i1 %.not, label %31, label %20

20:                                               ; preds = %_ZN4llvm23SmallVectorTemplateBaseIPKcLb1EE9push_backES2_.exit
  %21 = tail call noundef i64 @_ZNK4llvm15SmallVectorBaseIjE4sizeEv(ptr noundef nonnull align 8 dereferenceable(16) %2) #15
  %22 = add i64 %21, 1
  %23 = tail call noundef i64 @_ZNK4llvm15SmallVectorBaseIjE8capacityEv(ptr noundef nonnull align 8 dereferenceable(16) %2) #15
  %.not.i.i.i9 = icmp ugt i64 %22, %23
  br i1 %.not.i.i.i9, label %24, label %_ZN4llvm23SmallVectorTemplateBaseIPKcLb1EE9push_backES2_.exit10

24:                                               ; preds = %20
  %25 = getelementptr inbounds nuw i8, ptr %2, i64 16
  tail call void @_ZN4llvm15SmallVectorBaseIjE8grow_podEPvmm(ptr noundef nonnull align 8 dereferenceable(16) %2, ptr noundef nonnull %25, i64 noundef %22, i64 noundef 8) #15
  br label %_ZN4llvm23SmallVectorTemplateBaseIPKcLb1EE9push_backES2_.exit10

_ZN4llvm23SmallVectorTemplateBaseIPKcLb1EE9push_backES2_.exit10: ; preds = %20, %24
  %26 = load ptr, ptr %2, align 8
  %27 = tail call noundef i64 @_ZNK4llvm15SmallVectorBaseIjE4sizeEv(ptr noundef nonnull align 8 dereferenceable(16) %2) #15
  %28 = getelementptr inbounds ptr, ptr %26, i64 %27
  store i64 ptrtoint (ptr @.str.9 to i64), ptr %28, align 1
  %29 = tail call noundef i64 @_ZNK4llvm15SmallVectorBaseIjE4sizeEv(ptr noundef nonnull align 8 dereferenceable(16) %2) #15
  %30 = add i64 %29, 1
  tail call void @_ZN4llvm15SmallVectorBaseIjE8set_sizeEm(ptr noundef nonnull align 8 dereferenceable(16) %2, i64 noundef %30) #15
  br label %31

31:                                               ; preds = %_ZN4llvm23SmallVectorTemplateBaseIPKcLb1EE9push_backES2_.exit10, %_ZN4llvm23SmallVectorTemplateBaseIPKcLb1EE9push_backES2_.exit
  %32 = tail call noundef i64 @_ZNK4llvm15SmallVectorBaseIjE4sizeEv(ptr noundef nonnull align 8 dereferenceable(16) %2) #15
  %33 = add i64 %32, 1
  %34 = tail call noundef i64 @_ZNK4llvm15SmallVectorBaseIjE8capacityEv(ptr noundef nonnull align 8 dereferenceable(16) %2) #15
  %.not.i.i.i11 = icmp ugt i64 %33, %34
  br i1 %.not.i.i.i11, label %.sink.split.sink.split, label %.sink.split

35:                                               ; preds = %3
  %36 = tail call noundef i64 @_ZNK4llvm15SmallVectorBaseIjE4sizeEv(ptr noundef nonnull align 8 dereferenceable(16) %2) #15
  %37 = add i64 %36, 1
  %38 = tail call noundef i64 @_ZNK4llvm15SmallVectorBaseIjE8capacityEv(ptr noundef nonnull align 8 dereferenceable(16) %2) #15
  %.not.i.i.i13 = icmp ugt i64 %37, %38
  br i1 %.not.i.i.i13, label %39, label %_ZN4llvm23SmallVectorTemplateBaseIPKcLb1EE9push_backES2_.exit14

39:                                               ; preds = %35
  %40 = getelementptr inbounds nuw i8, ptr %2, i64 16
  tail call void @_ZN4llvm15SmallVectorBaseIjE8grow_podEPvmm(ptr noundef nonnull align 8 dereferenceable(16) %2, ptr noundef nonnull %40, i64 noundef %37, i64 noundef 8) #15
  br label %_ZN4llvm23SmallVectorTemplateBaseIPKcLb1EE9push_backES2_.exit14

_ZN4llvm23SmallVectorTemplateBaseIPKcLb1EE9push_backES2_.exit14: ; preds = %35, %39
  %41 = load ptr, ptr %2, align 8
  %42 = tail call noundef i64 @_ZNK4llvm15SmallVectorBaseIjE4sizeEv(ptr noundef nonnull align 8 dereferenceable(16) %2) #15
  %43 = getelementptr inbounds ptr, ptr %41, i64 %42
  store i64 ptrtoint (ptr @.str.11 to i64), ptr %43, align 1
  %44 = tail call noundef i64 @_ZNK4llvm15SmallVectorBaseIjE4sizeEv(ptr noundef nonnull align 8 dereferenceable(16) %2) #15
  %45 = add i64 %44, 1
  tail call void @_ZN4llvm15SmallVectorBaseIjE8set_sizeEm(ptr noundef nonnull align 8 dereferenceable(16) %2, i64 noundef %45) #15
  %46 = tail call noundef i64 @_ZNK4llvm15SmallVectorBaseIjE4sizeEv(ptr noundef nonnull align 8 dereferenceable(16) %2) #15
  %47 = add i64 %46, 1
  %48 = tail call noundef i64 @_ZNK4llvm15SmallVectorBaseIjE8capacityEv(ptr noundef nonnull align 8 dereferenceable(16) %2) #15
  %.not.i.i.i15 = icmp ugt i64 %47, %48
  br i1 %.not.i.i.i15, label %.sink.split.sink.split, label %.sink.split

.sink.split.sink.split:                           ; preds = %_ZN4llvm23SmallVectorTemplateBaseIPKcLb1EE9push_backES2_.exit14, %31
  %.sink24 = phi i64 [ %33, %31 ], [ %47, %_ZN4llvm23SmallVectorTemplateBaseIPKcLb1EE9push_backES2_.exit14 ]
  %.sink.ph = phi i64 [ ptrtoint (ptr @.str.10 to i64), %31 ], [ ptrtoint (ptr @.str.12 to i64), %_ZN4llvm23SmallVectorTemplateBaseIPKcLb1EE9push_backES2_.exit14 ]
  %49 = getelementptr inbounds nuw i8, ptr %2, i64 16
  tail call void @_ZN4llvm15SmallVectorBaseIjE8grow_podEPvmm(ptr noundef nonnull align 8 dereferenceable(16) %2, ptr noundef nonnull %49, i64 noundef %.sink24, i64 noundef 8) #15
  br label %.sink.split

.sink.split:                                      ; preds = %.sink.split.sink.split, %_ZN4llvm23SmallVectorTemplateBaseIPKcLb1EE9push_backES2_.exit14, %31
  %.sink = phi i64 [ ptrtoint (ptr @.str.10 to i64), %31 ], [ ptrtoint (ptr @.str.12 to i64), %_ZN4llvm23SmallVectorTemplateBaseIPKcLb1EE9push_backES2_.exit14 ], [ %.sink.ph, %.sink.split.sink.split ]
  %50 = load ptr, ptr %2, align 8
  %51 = tail call noundef i64 @_ZNK4llvm15SmallVectorBaseIjE4sizeEv(ptr noundef nonnull align 8 dereferenceable(16) %2) #15
  %52 = getelementptr inbounds ptr, ptr %50, i64 %51
  store i64 %.sink, ptr %52, align 1
  %53 = tail call noundef i64 @_ZNK4llvm15SmallVectorBaseIjE4sizeEv(ptr noundef nonnull align 8 dereferenceable(16) %2) #15
  %54 = add i64 %53, 1
  tail call void @_ZN4llvm15SmallVectorBaseIjE8set_sizeEm(ptr noundef nonnull align 8 dereferenceable(16) %2, i64 noundef %54) #15
  br label %55

55:                                               ; preds = %.sink.split, %3
  %56 = tail call noundef i64 @_ZNK4llvm15SmallVectorBaseIjE4sizeEv(ptr noundef nonnull align 8 dereferenceable(16) %2) #15
  %57 = add i64 %56, 1
  %58 = tail call noundef i64 @_ZNK4llvm15SmallVectorBaseIjE8capacityEv(ptr noundef nonnull align 8 dereferenceable(16) %2) #15
  %.not.i.i.i17 = icmp ugt i64 %57, %58
  br i1 %.not.i.i.i17, label %59, label %_ZN4llvm23SmallVectorTemplateBaseIPKcLb1EE9push_backES2_.exit18

59:                                               ; preds = %55
  %60 = getelementptr inbounds nuw i8, ptr %2, i64 16
  tail call void @_ZN4llvm15SmallVectorBaseIjE8grow_podEPvmm(ptr noundef nonnull align 8 dereferenceable(16) %2, ptr noundef nonnull %60, i64 noundef %57, i64 noundef 8) #15
  br label %_ZN4llvm23SmallVectorTemplateBaseIPKcLb1EE9push_backES2_.exit18

_ZN4llvm23SmallVectorTemplateBaseIPKcLb1EE9push_backES2_.exit18: ; preds = %55, %59
  %61 = load ptr, ptr %2, align 8
  %62 = tail call noundef i64 @_ZNK4llvm15SmallVectorBaseIjE4sizeEv(ptr noundef nonnull align 8 dereferenceable(16) %2) #15
  %63 = getelementptr inbounds ptr, ptr %61, i64 %62
  store i64 ptrtoint (ptr @.str.13 to i64), ptr %63, align 1
  %64 = tail call noundef i64 @_ZNK4llvm15SmallVectorBaseIjE4sizeEv(ptr noundef nonnull align 8 dereferenceable(16) %2) #15
  %65 = add i64 %64, 1
  tail call void @_ZN4llvm15SmallVectorBaseIjE8set_sizeEm(ptr noundef nonnull align 8 dereferenceable(16) %2, i64 noundef %65) #15
  ret void
}